TN:
SF:/mnt/d/documents/c++/da_labs/3/src/main.cpp
FN:115,123,_ZN5BTree10deleteNodeEP4Node
FN:125,135,_ZN5BTree8saveNodeERSoP4Node
FN:137,143,_ZN5BTree10getMaxLeftEP4Nodei
FN:145,190,_ZN5BTree10removeElemEP4NodeRKNSt7__cxx1112basic_stringIcSt11char_traitsIcESaIcEEES1_i
FN:192,282,_ZN5BTree12balanceNodesEP4NodeS1_i
FN:285,285,_ZN5BTreeC2Ei
FN:287,287,_ZN5BTreeD2Ev
FN:289,310,_ZN5BTree4findERKNSt7__cxx1112basic_stringIcSt11char_traitsIcESaIcEEE
FN:312,326,_ZN5BTree6insertERKNSt7__cxx1112basic_stringIcSt11char_traitsIcESaIcEEEy
FN:328,337,_ZN5BTree6removeERKNSt7__cxx1112basic_stringIcSt11char_traitsIcESaIcEEE
FN:33,42,_ZN5BTree7strLessERKNSt7__cxx1112basic_stringIcSt11char_traitsIcESaIcEEES7_
FN:339,343,_ZN5BTree4saveERKNSt7__cxx1112basic_stringIcSt11char_traitsIcESaIcEEE
FN:345,358,_ZN5BTree4loadERKNSt7__cxx1112basic_stringIcSt11char_traitsIcESaIcEEE
FN:361,419,main
FN:44,50,_ZN5BTree8strEqualERKNSt7__cxx1112basic_stringIcSt11char_traitsIcESaIcEEES7_
FN:52,60,_ZN5BTree10createNodeEv
FN:62,85,_ZN5BTree9splitNodeEP4Nodei
FN:87,113,_ZN5BTree10insertElemEP4NodeRK8NodeElem
FNDA:121095,_ZN5BTree10deleteNodeEP4Node
FNDA:113360,_ZN5BTree8saveNodeERSoP4Node
FNDA:57,_ZN5BTree10getMaxLeftEP4Nodei
FNDA:12238,_ZN5BTree10removeElemEP4NodeRKNSt7__cxx1112basic_stringIcSt11char_traitsIcESaIcEEES1_i
FNDA:146,_ZN5BTree12balanceNodesEP4NodeS1_i
FNDA:248,_ZN5BTreeC2Ei
FNDA:248,_ZN5BTreeD2Ev
FNDA:7983,_ZN5BTree4findERKNSt7__cxx1112basic_stringIcSt11char_traitsIcESaIcEEE
FNDA:166599,_ZN5BTree6insertERKNSt7__cxx1112basic_stringIcSt11char_traitsIcESaIcEEEy
FNDA:1534,_ZN5BTree6removeERKNSt7__cxx1112basic_stringIcSt11char_traitsIcESaIcEEE
FNDA:1842504,_ZN5BTree7strLessERKNSt7__cxx1112basic_stringIcSt11char_traitsIcESaIcEEES7_
FNDA:236,_ZN5BTree4saveERKNSt7__cxx1112basic_stringIcSt11char_traitsIcESaIcEEE
FNDA:247,_ZN5BTree4loadERKNSt7__cxx1112basic_stringIcSt11char_traitsIcESaIcEEE
FNDA:1,main
FNDA:89624,_ZN5BTree8strEqualERKNSt7__cxx1112basic_stringIcSt11char_traitsIcESaIcEEES7_
FNDA:121193,_ZN5BTree10createNodeEv
FNDA:119193,_ZN5BTree9splitNodeEP4Nodei
FNDA:1157554,_ZN5BTree10insertElemEP4NodeRK8NodeElem
FNF:18
FNH:18
DA:33,1842504
DA:34,1842504
DA:35,10863290
DA:36,10843410
DA:37,10843410
DA:38,10843410
DA:39,9377326
DA:41,19880
DA:44,89624
DA:45,89624
DA:46,451551
DA:47,450092
DA:49,1459
DA:52,121193
DA:53,121193
DA:54,121193
DA:55,121193
DA:56,605965
DA:57,484772
DA:59,121193
DA:62,119193
DA:63,119193
DA:64,119193
DA:65,119193
DA:66,119193
DA:67,238386
DA:68,119193
DA:70,119193
DA:71,164931
DA:72,109954
DA:75,119193
DA:76,119193
DA:78,171576
DA:79,52383
DA:80,52383
DA:82,119193
DA:83,119193
DA:84,119193
DA:85,119193
DA:87,1157554
DA:88,1157554
DA:89,166599
DA:90,297824
DA:91,131225
DA:92,131225
DA:94,166599
DA:95,166599
DA:97,990955
DA:98,3697783
DA:99,1432796
DA:100,1274032
DA:102,990955
DA:103,990955
DA:104,117441
DA:105,117441
DA:106,29645
DA:108,87796
DA:111,990955
DA:113,1157554
DA:115,121095
DA:116,121095
DA:117,121095
DA:118,177504
DA:119,120847
DA:122,121095
DA:125,113360
DA:126,113360
DA:127,268434
DA:128,155074
DA:130,113360
DA:131,166410
DA:132,113124
DA:137,57
DA:138,57
DA:139,101
DA:140,44
DA:142,57
DA:145,12238
DA:147,12238
DA:148,35697
DA:149,14969
DA:150,8490
DA:153,12238
DA:154,12238
DA:155,1534
DA:156,165
DA:157,38
DA:159,127
DA:160,127
DA:161,63
DA:163,127
DA:165,1407
DA:167,10704
DA:168,57
DA:169,57
DA:171,57
DA:172,57
DA:173,16
DA:175,57
DA:176,57
DA:177,10647
DA:178,16059
DA:179,5412
DA:180,0
DA:182,10647
DA:184,10647
DA:185,67
DA:187,10647
DA:192,146
DA:193,146
DA:194,146
DA:195,68
DA:196,68
DA:197,13
DA:198,0
DA:200,13
DA:201,13
DA:202,13
DA:203,13
DA:204,13
DA:205,13
DA:206,3
DA:207,3
DA:208,3
DA:209,0
DA:211,3
DA:212,3
DA:214,13
DA:217,133
DA:218,93
DA:219,93
DA:220,36
DA:221,36
DA:222,91
DA:223,55
DA:225,36
DA:226,36
DA:227,36
DA:228,9
DA:229,9
DA:230,27
DA:231,18
DA:232,18
DA:235,36
DA:239,97
DA:240,42
DA:241,42
DA:242,42
DA:243,42
DA:244,42
DA:245,0
DA:246,0
DA:248,42
DA:249,58
DA:250,29
DA:251,29
DA:254,42
DA:255,44
DA:256,2
DA:257,2
DA:259,42
DA:260,42
DA:262,55
DA:263,55
DA:264,55
DA:265,110
DA:266,55
DA:268,55
DA:269,126
DA:270,84
DA:271,84
DA:274,55
DA:275,66
DA:276,11
DA:277,11
DA:279,55
DA:280,55
DA:285,248
DA:287,248
DA:289,7983
DA:290,7983
DA:291,62840
DA:292,144707
DA:293,83145
DA:294,1275
DA:297,61562
DA:298,6705
DA:300,54857
DA:301,91508
DA:302,64818
DA:303,28167
DA:305,36651
DA:307,54857
DA:309,3
DA:312,166599
DA:313,166599
DA:314,248
DA:316,166599
DA:317,1752
DA:318,1752
DA:319,1752
DA:320,1752
DA:321,1752
DA:322,1752
DA:324,164847
DA:326,333198
DA:328,1534
DA:329,1534
DA:330,1534
DA:331,1534
DA:332,1
DA:333,1
DA:334,1
DA:336,1534
DA:339,236
DA:340,236
DA:341,236
DA:342,236
DA:343,236
DA:345,247
DA:346,247
DA:347,247
DA:348,247
DA:349,162021
DA:350,161774
DA:351,161774
DA:353,161774
DA:354,161774
DA:356,161774
DA:357,247
DA:358,247
DA:361,1
DA:362,1
DA:363,1
DA:365,10001
DA:366,10000
DA:367,10000
DA:368,10000
DA:370,10000
DA:371,5936
DA:373,5936
DA:374,5936
DA:377,4825
DA:381,10000
DA:382,1534
DA:383,1534
DA:384,1534
DA:390,4064
DA:391,483
DA:392,483
DA:393,483
DA:394,483
DA:395,483
DA:396,236
DA:398,247
DA:399,247
DA:401,247
DA:402,247
DA:405,483
DA:406,2047
DA:407,2047
DA:413,2047
DA:414,10000
DA:416,1
DA:418,1
DA:419,1
LF:266
LH:261
end_of_record
TN:
SF:/usr/include/c++/13/bits/allocator.h
FNF:0
FNH:0
LF:0
LH:0
end_of_record
TN:
SF:/usr/include/c++/13/bits/basic_string.h
FN:3727,3732,_ZSteqIcSt11char_traitsIcESaIcEEbRKNSt7__cxx1112basic_stringIT_T0_T1_EEPKS5_
FNDA:17324,_ZSteqIcSt11char_traitsIcESaIcEEbRKNSt7__cxx1112basic_stringIT_T0_T1_EEPKS5_
FNF:1
FNH:1
DA:355,0
DA:3727,17324
DA:3730,17324
DA:3731,17324
LF:4
LH:3
end_of_record
TN:
SF:/usr/include/c++/13/bits/basic_string.tcc
FN:221,252,_ZNSt7__cxx1112basic_stringIcSt11char_traitsIcESaIcEE12_M_constructIPcEEvT_S7_St20forward_iterator_tag
FN:239,239,_ZZNSt7__cxx1112basic_stringIcSt11char_traitsIcESaIcEE12_M_constructIPcEEvT_S7_St20forward_iterator_tagEN6_GuardC2EPS4_
FN:242,242,_ZZNSt7__cxx1112basic_stringIcSt11char_traitsIcESaIcEE12_M_constructIPcEEvT_S7_St20forward_iterator_tagEN6_GuardD2Ev
FNDA:0,_ZNSt7__cxx1112basic_stringIcSt11char_traitsIcESaIcEE12_M_constructIPcEEvT_S7_St20forward_iterator_tag
FNDA:0,_ZZNSt7__cxx1112basic_stringIcSt11char_traitsIcESaIcEE12_M_constructIPcEEvT_S7_St20forward_iterator_tagEN6_GuardC2EPS4_
FNDA:0,_ZZNSt7__cxx1112basic_stringIcSt11char_traitsIcESaIcEE12_M_constructIPcEEvT_S7_St20forward_iterator_tagEN6_GuardD2Ev
FNF:3
FNH:0
DA:221,0
DA:225,0
DA:227,0
DA:229,0
DA:230,0
DA:239,0
DA:242,0
DA:245,0
DA:247,0
DA:249,0
DA:251,0
DA:252,0
LF:12
LH:0
end_of_record
TN:
SF:/usr/include/c++/13/bits/char_traits.h
FN:136,137,_ZN9__gnu_cxx11char_traitsIcE2eqERKcS3_
FN:199,206,_ZN9__gnu_cxx11char_traitsIcE6lengthEPKc
FN:366,371,_ZNSt11char_traitsIcE2ltERKcS2_
FN:374,390,_ZNSt11char_traitsIcE7compareEPKcS2_m
FN:393,400,_ZNSt11char_traitsIcE6lengthEPKc
FNDA:0,_ZN9__gnu_cxx11char_traitsIcE2eqERKcS3_
FNDA:0,_ZN9__gnu_cxx11char_traitsIcE6lengthEPKc
FNDA:0,_ZNSt11char_traitsIcE2ltERKcS2_
FNDA:11183,_ZNSt11char_traitsIcE7compareEPKcS2_m
FNDA:17324,_ZNSt11char_traitsIcE6lengthEPKc
FNF:5
FNH:2
DA:136,0
DA:137,0
DA:199,0
DA:202,0
DA:203,0
DA:204,0
DA:205,0
DA:366,0
DA:369,0
DA:370,0
DA:374,11183
DA:376,11183
DA:377,0
DA:379,11183
DA:381,0
DA:382,0
DA:383,0
DA:384,0
DA:385,0
DA:386,0
DA:389,11183
DA:393,17324
DA:396,17324
DA:397,0
DA:399,17324
LF:25
LH:7
end_of_record
TN:
SF:/usr/include/c++/13/bits/move.h
FN:97,98,_ZSt4moveIRSaIcEEONSt16remove_referenceIT_E4typeEOS3_
FNDA:0,_ZSt4moveIRSaIcEEONSt16remove_referenceIT_E4typeEOS3_
FNF:1
FNH:0
DA:97,0
DA:98,0
LF:2
LH:0
end_of_record
TN:
SF:/usr/include/c++/13/bits/new_allocator.h
FN:104,104,_ZNSt15__new_allocatorIcED2Ev
FNDA:0,_ZNSt15__new_allocatorIcED2Ev
FNF:1
FNH:0
DA:104,0
LF:1
LH:0
end_of_record
TN:
SF:/usr/include/c++/13/bits/stl_algobase.h
FN:233,241,_ZSt3minImERKT_S2_S2_
FNDA:1842504,_ZSt3minImERKT_S2_S2_
FNF:1
FNH:1
DA:233,1842504
DA:238,1842504
DA:239,189437
DA:240,1653067
LF:4
LH:4
end_of_record
TN:
SF:/usr/include/c++/13/bits/stl_iterator_base_funcs.h
FNF:0
FNH:0
DA:106,0
DA:151,0
DA:152,0
LF:3
LH:0
end_of_record
TN:
SF:/usr/include/c++/13/bits/stl_iterator_base_types.h
FNF:0
FNH:0
DA:240,0
LF:1
LH:0
end_of_record
TN:
SF:/usr/include/x86_64-linux-gnu/c++/13/bits/c++config.h
FN:540,551,_ZSt23__is_constant_evaluatedv
FNDA:28507,_ZSt23__is_constant_evaluatedv
FNF:1
FNH:1
DA:540,28507
DA:547,28507
LF:2
LH:2
end_of_record
